target datalayout = "e-m:e-p270:32:32-p271:32:32-p272:64:64-i64:64-i128:128-f80:128-n8:16:32:64-S128"
target triple = "x86_64-pc-linux-gnu"

%struct.AVIOContext = type { ptr, ptr, i32, ptr, ptr, ptr, ptr, ptr, ptr, i64, i32, i32, i32, i32, i32, i64, ptr, ptr, ptr, ptr, i32, i32, ptr, ptr, ptr, i32, ptr, i64, i64 }
%struct.DynBuffer = type { i32, i32, i32, ptr, i32, [1 x i8] }

; Function Attrs: nounwind uwtable
define void @avio_context_free(ptr noundef %0) #0 {
  %2 = alloca ptr, align 8
  store ptr %0, ptr %2, align 8, !tbaa !47
  %3 = load ptr, ptr %2, align 8, !tbaa !47
  call void @av_freep(ptr noundef %3)
  ret void
}

; Function Attrs: nounwind uwtable
define void @avio_flush(ptr noundef %0) #0 {
  %2 = alloca ptr, align 8
  %3 = alloca i32, align 4
  store ptr %0, ptr %2, align 8, !tbaa !14
  call void @llvm.lifetime.start.p0(i64 4, ptr %3) #12
  %4 = load ptr, ptr %2, align 8, !tbaa !14
  %5 = getelementptr inbounds nuw %struct.AVIOContext, ptr %4, i32 0, i32 12
  %6 = load i32, ptr %5, align 8, !tbaa !46
  %7 = icmp ne i32 %6, 0
  br i1 %7, label %8, label %32

8:                                                ; preds = %1
  %9 = load ptr, ptr %2, align 8, !tbaa !14
  %10 = getelementptr inbounds nuw %struct.AVIOContext, ptr %9, i32 0, i32 3
  %11 = load ptr, ptr %10, align 8, !tbaa !23
  %12 = load ptr, ptr %2, align 8, !tbaa !14
  %13 = getelementptr inbounds nuw %struct.AVIOContext, ptr %12, i32 0, i32 26
  %14 = load ptr, ptr %13, align 8, !tbaa !24
  %15 = ptrtoint ptr %11 to i64
  %16 = ptrtoint ptr %14 to i64
  %17 = sub i64 %15, %16
  %18 = icmp sgt i64 0, %17
  br i1 %18, label %19, label %29

19:                                               ; preds = %8
  %20 = load ptr, ptr %2, align 8, !tbaa !14
  %21 = getelementptr inbounds nuw %struct.AVIOContext, ptr %20, i32 0, i32 3
  %22 = load ptr, ptr %21, align 8, !tbaa !23
  %23 = load ptr, ptr %2, align 8, !tbaa !14
  %24 = getelementptr inbounds nuw %struct.AVIOContext, ptr %23, i32 0, i32 26
  %25 = load ptr, ptr %24, align 8, !tbaa !24
  %26 = ptrtoint ptr %22 to i64
  %27 = ptrtoint ptr %25 to i64
  %28 = sub i64 %26, %27
  br label %30

29:                                               ; preds = %8
  br label %30

30:                                               ; preds = %29, %19
  %31 = phi i64 [ %28, %19 ], [ 0, %29 ]
  br label %33

32:                                               ; preds = %1
  br label %33

33:                                               ; preds = %32, %30
  %34 = phi i64 [ %31, %30 ], [ 0, %32 ]
  %35 = trunc i64 %34 to i32
  store i32 %35, ptr %3, align 4, !tbaa !11
  %36 = load ptr, ptr %2, align 8, !tbaa !14
  call void @flush_buffer(ptr noundef %36)
  %37 = load i32, ptr %3, align 4, !tbaa !11
  %38 = icmp ne i32 %37, 0
  br i1 %38, label %39, label %44

39:                                               ; preds = %33
  %40 = load ptr, ptr %2, align 8, !tbaa !14
  %41 = load i32, ptr %3, align 4, !tbaa !11
  %42 = sext i32 %41 to i64
  %43 = call i64 @avio_seek(ptr noundef %40, i64 noundef %42, i32 noundef 1)
  br label %44

44:                                               ; preds = %39, %33
  call void @llvm.lifetime.end.p0(i64 4, ptr %3) #12
  ret void
}

; Function Attrs: nounwind uwtable
define void @ffio_fill(ptr noundef %0, i32 noundef %1, i64 noundef %2) #0 {
  %4 = alloca ptr, align 8
  %5 = alloca i32, align 4
  %6 = alloca i64, align 8
  %7 = alloca i32, align 4
  store ptr %0, ptr %4, align 8, !tbaa !14
  store i32 %1, ptr %5, align 4, !tbaa !11
  store i64 %2, ptr %6, align 8, !tbaa !53
  br label %8

8:                                                ; preds = %60, %3
  %9 = load i64, ptr %6, align 8, !tbaa !53
  %10 = icmp sgt i64 %9, 0
  br i1 %10, label %11, label %65

11:                                               ; preds = %8
  call void @llvm.lifetime.start.p0(i64 4, ptr %7) #12
  %12 = load ptr, ptr %4, align 8, !tbaa !14
  %13 = getelementptr inbounds nuw %struct.AVIOContext, ptr %12, i32 0, i32 4
  %14 = load ptr, ptr %13, align 8, !tbaa !38
  %15 = load ptr, ptr %4, align 8, !tbaa !14
  %16 = getelementptr inbounds nuw %struct.AVIOContext, ptr %15, i32 0, i32 3
  %17 = load ptr, ptr %16, align 8, !tbaa !23
  %18 = ptrtoint ptr %14 to i64
  %19 = ptrtoint ptr %17 to i64
  %20 = sub i64 %18, %19
  %21 = load i64, ptr %6, align 8, !tbaa !53
  %22 = icmp sgt i64 %20, %21
  br i1 %22, label %23, label %25

23:                                               ; preds = %11
  %24 = load i64, ptr %6, align 8, !tbaa !53
  br label %35

25:                                               ; preds = %11
  %26 = load ptr, ptr %4, align 8, !tbaa !14
  %27 = getelementptr inbounds nuw %struct.AVIOContext, ptr %26, i32 0, i32 4
  %28 = load ptr, ptr %27, align 8, !tbaa !38
  %29 = load ptr, ptr %4, align 8, !tbaa !14
  %30 = getelementptr inbounds nuw %struct.AVIOContext, ptr %29, i32 0, i32 3
  %31 = load ptr, ptr %30, align 8, !tbaa !23
  %32 = ptrtoint ptr %28 to i64
  %33 = ptrtoint ptr %31 to i64
  %34 = sub i64 %32, %33
  br label %35

35:                                               ; preds = %25, %23
  %36 = phi i64 [ %24, %23 ], [ %34, %25 ]
  %37 = trunc i64 %36 to i32
  store i32 %37, ptr %7, align 4, !tbaa !11
  %38 = load ptr, ptr %4, align 8, !tbaa !14
  %39 = getelementptr inbounds nuw %struct.AVIOContext, ptr %38, i32 0, i32 3
  %40 = load ptr, ptr %39, align 8, !tbaa !23
  %41 = load i32, ptr %5, align 4, !tbaa !11
  %42 = trunc i32 %41 to i8
  %43 = load i32, ptr %7, align 4, !tbaa !11
  %44 = sext i32 %43 to i64
  call void @llvm.memset.p0.i64(ptr align 1 %40, i8 %42, i64 %44, i1 false)
  %45 = load i32, ptr %7, align 4, !tbaa !11
  %46 = load ptr, ptr %4, align 8, !tbaa !14
  %47 = getelementptr inbounds nuw %struct.AVIOContext, ptr %46, i32 0, i32 3
  %48 = load ptr, ptr %47, align 8, !tbaa !23
  %49 = sext i32 %45 to i64
  %50 = getelementptr inbounds i8, ptr %48, i64 %49
  store ptr %50, ptr %47, align 8, !tbaa !23
  %51 = load ptr, ptr %4, align 8, !tbaa !14
  %52 = getelementptr inbounds nuw %struct.AVIOContext, ptr %51, i32 0, i32 3
  %53 = load ptr, ptr %52, align 8, !tbaa !23
  %54 = load ptr, ptr %4, align 8, !tbaa !14
  %55 = getelementptr inbounds nuw %struct.AVIOContext, ptr %54, i32 0, i32 4
  %56 = load ptr, ptr %55, align 8, !tbaa !38
  %57 = icmp uge ptr %53, %56
  br i1 %57, label %58, label %60

58:                                               ; preds = %35
  %59 = load ptr, ptr %4, align 8, !tbaa !14
  call void @flush_buffer(ptr noundef %59)
  br label %60

60:                                               ; preds = %58, %35
  %61 = load i32, ptr %7, align 4, !tbaa !11
  %62 = sext i32 %61 to i64
  %63 = load i64, ptr %6, align 8, !tbaa !53
  %64 = sub nsw i64 %63, %62
  store i64 %64, ptr %6, align 8, !tbaa !53
  call void @llvm.lifetime.end.p0(i64 4, ptr %7) #12
  br label %8, !llvm.loop !54

65:                                               ; preds = %8
  ret void
}

; Function Attrs: nounwind uwtable
define i32 @avio_close_dyn_buf(ptr noundef %0, ptr noundef %1) #0 {
  %3 = alloca i32, align 4
  %4 = alloca ptr, align 8
  %5 = alloca ptr, align 8
  %6 = alloca ptr, align 8
  %7 = alloca i32, align 4
  %8 = alloca i32, align 4
  %9 = alloca i32, align 4
  store ptr %0, ptr %4, align 8, !tbaa !14
  store ptr %1, ptr %5, align 8, !tbaa !70
  call void @llvm.lifetime.start.p0(i64 8, ptr %6) #12
  call void @llvm.lifetime.start.p0(i64 4, ptr %7) #12
  call void @llvm.lifetime.start.p0(i64 4, ptr %8) #12
  store i32 0, ptr %8, align 4, !tbaa !11
  %10 = load ptr, ptr %4, align 8, !tbaa !14
  %11 = icmp ne ptr %10, null
  br i1 %11, label %14, label %12

12:                                               ; preds = %2
  %13 = load ptr, ptr %5, align 8, !tbaa !70
  store ptr null, ptr %13, align 8, !tbaa !9
  store i32 0, ptr %3, align 4
  store i32 1, ptr %9, align 4
  br label %36

14:                                               ; preds = %2
  %15 = load ptr, ptr %4, align 8, !tbaa !14
  %16 = getelementptr inbounds nuw %struct.AVIOContext, ptr %15, i32 0, i32 13
  %17 = load i32, ptr %16, align 4, !tbaa !35
  %18 = icmp ne i32 %17, 0
  br i1 %18, label %21, label %19

19:                                               ; preds = %14
  %20 = load ptr, ptr %4, align 8, !tbaa !14
  call void @ffio_fill(ptr noundef %20, i32 noundef 0, i64 noundef 64)
  store i32 64, ptr %8, align 4, !tbaa !11
  br label %21

21:                                               ; preds = %19, %14
  %22 = load ptr, ptr %4, align 8, !tbaa !14
  call void @avio_flush(ptr noundef %22)
  %23 = load ptr, ptr %4, align 8, !tbaa !14
  %24 = getelementptr inbounds nuw %struct.AVIOContext, ptr %23, i32 0, i32 5
  %25 = load ptr, ptr %24, align 8, !tbaa !25
  store ptr %25, ptr %6, align 8, !tbaa !99
  %26 = load ptr, ptr %6, align 8, !tbaa !99
  %27 = getelementptr inbounds nuw %struct.DynBuffer, ptr %26, i32 0, i32 3
  %28 = load ptr, ptr %27, align 8, !tbaa !104
  %29 = load ptr, ptr %5, align 8, !tbaa !70
  store ptr %28, ptr %29, align 8, !tbaa !9
  %30 = load ptr, ptr %6, align 8, !tbaa !99
  %31 = getelementptr inbounds nuw %struct.DynBuffer, ptr %30, i32 0, i32 1
  %32 = load i32, ptr %31, align 4, !tbaa !103
  store i32 %32, ptr %7, align 4, !tbaa !11
  call void @avio_context_free(ptr noundef %4)
  %33 = load i32, ptr %7, align 4, !tbaa !11
  %34 = load i32, ptr %8, align 4, !tbaa !11
  %35 = sub nsw i32 %33, %34
  store i32 %35, ptr %3, align 4
  store i32 1, ptr %9, align 4
  br label %36

36:                                               ; preds = %21, %12
  call void @llvm.lifetime.end.p0(i64 4, ptr %8) #12
  call void @llvm.lifetime.end.p0(i64 4, ptr %7) #12
  call void @llvm.lifetime.end.p0(i64 8, ptr %6) #12
  %37 = load i32, ptr %3, align 4
  ret i32 %37
}