; Function Attrs: nounwind uwtable
define i32 @avio_close_dyn_buf(ptr noundef %0, ptr noundef writeonly captures(none) %1) local_unnamed_addr #3 {
  %3 = alloca ptr, align 8
  store ptr %0, ptr %3, align 8, !tbaa !79
  %.not = icmp eq ptr %0, null
  br i1 %.not, label %4, label %5

4:                                                ; preds = %2
  store ptr null, ptr %1, align 8, !tbaa !54
  br label %48

5:                                                ; preds = %2
  %6 = getelementptr inbounds nuw i8, ptr %0, i64 92
  %7 = load i32, ptr %6, align 4, !tbaa !25
  %.not8 = icmp eq i32 %7, 0
  br i1 %.not8, label %8, label %ffio_fill.exit

8:                                                ; preds = %5
  %9 = getelementptr inbounds nuw i8, ptr %0, i64 32
  %10 = getelementptr inbounds nuw i8, ptr %0, i64 24
  br label %11

11:                                               ; preds = %22, %8
  %.017.i = phi i64 [ 64, %8 ], [ %23, %22 ]
  %12 = load ptr, ptr %9, align 8, !tbaa !19
  %13 = load ptr, ptr %10, align 8, !tbaa !16
  %14 = ptrtoint ptr %12 to i64
  %15 = ptrtoint ptr %13 to i64
  %16 = sub i64 %14, %15
  %.0..i = tail call i64 @llvm.smin.i64(i64 %16, i64 %.017.i)
  %sext.i = shl i64 %.0..i, 32
  %17 = ashr exact i64 %sext.i, 32
  tail call void @llvm.memset.p0.i64(ptr align 1 %13, i8 0, i64 %17, i1 false)
  %18 = load ptr, ptr %10, align 8, !tbaa !16
  %19 = getelementptr inbounds i8, ptr %18, i64 %17
  store ptr %19, ptr %10, align 8, !tbaa !16
  %20 = load ptr, ptr %9, align 8, !tbaa !19
  %.not.i = icmp ult ptr %19, %20
  br i1 %.not.i, label %22, label %21

21:                                               ; preds = %11
  tail call fastcc void @flush_buffer(ptr noundef nonnull %0)
  br label %22

22:                                               ; preds = %21, %11
  %23 = sub nsw i64 %.017.i, %17
  %24 = icmp sgt i64 %23, 0
  br i1 %24, label %11, label %ffio_fill.exit, !llvm.loop !42

ffio_fill.exit:                                   ; preds = %22, %5
  %.0.neg = phi i32 [ 0, %5 ], [ -64, %22 ]
  %25 = getelementptr inbounds nuw i8, ptr %0, i64 88
  %26 = load i32, ptr %25, align 8, !tbaa !20
  %.not.i9 = icmp eq i32 %26, 0
  br i1 %.not.i9, label %.thread.i, label %27

27:                                               ; preds = %ffio_fill.exit
  %28 = getelementptr inbounds nuw i8, ptr %0, i64 24
  %29 = load ptr, ptr %28, align 8, !tbaa !16
  %30 = getelementptr inbounds nuw i8, ptr %0, i64 184
  %31 = load ptr, ptr %30, align 8, !tbaa !17
  %32 = ptrtoint ptr %29 to i64
  %33 = ptrtoint ptr %31 to i64
  %34 = sub i64 %32, %33
  %35 = icmp slt i64 %34, 0
  br i1 %35, label %36, label %.thread.i

.thread.i:                                        ; preds = %27, %ffio_fill.exit
  tail call fastcc void @flush_buffer(ptr noundef nonnull %0)
  br label %avio_flush.exit

36:                                               ; preds = %27
  tail call fastcc void @flush_buffer(ptr noundef nonnull %0)
  %37 = and i64 %34, 4294967295
  %.not9.i = icmp eq i64 %37, 0
  br i1 %.not9.i, label %avio_flush.exit, label %38

38:                                               ; preds = %36
  %sext.i10 = shl i64 %34, 32
  %39 = ashr exact i64 %sext.i10, 32
  %40 = tail call i64 @avio_seek(ptr noundef nonnull %0, i64 noundef %39, i32 noundef 1)
  br label %avio_flush.exit

avio_flush.exit:                                  ; preds = %.thread.i, %36, %38
  %41 = getelementptr inbounds nuw i8, ptr %0, i64 40
  %42 = load ptr, ptr %41, align 8, !tbaa !18
  %43 = getelementptr inbounds nuw i8, ptr %42, i64 16
  %44 = load ptr, ptr %43, align 8, !tbaa !82
  store ptr %44, ptr %1, align 8, !tbaa !54
  %45 = getelementptr inbounds nuw i8, ptr %42, i64 4
  %46 = load i32, ptr %45, align 4, !tbaa !81
  call void @av_freep(ptr noundef nonnull %3) #14
  %47 = add i32 %46, %.0.neg
  br label %48

48:                                               ; preds = %avio_flush.exit, %4
  %.06 = phi i32 [ %47, %avio_flush.exit ], [ 0, %4 ]
  ret i32 %.06
}